target datalayout = "e-m:e-p270:32:32-p271:32:32-p272:64:64-i64:64-i128:128-f80:128-n8:16:32:64-S128"
target triple = "x86_64-pc-linux-gnu"

%struct.slurmdb_report_cluster_rec_t = type { ptr, ptr, ptr, ptr, ptr }

@fed_name = external global ptr, align 8
@.str.72 = private unnamed_addr constant [7 x i8] c"FED:%s\00", align 1
@.str.73 = private unnamed_addr constant [11 x i8] c"FEDERATION\00", align 1

; Function Attrs: nounwind uwtable
define internal void @_merge_cluster_reps(ptr noundef %0) #0 {
  %2 = alloca ptr, align 8
  %3 = alloca ptr, align 8
  %4 = alloca ptr, align 8
  %5 = alloca ptr, align 8
  %6 = alloca i32, align 4
  store ptr %0, ptr %2, align 8
  call void @llvm.lifetime.start.p0(i64 8, ptr %3) #7
  store ptr null, ptr %3, align 8
  call void @llvm.lifetime.start.p0(i64 8, ptr %4) #7
  store ptr null, ptr %4, align 8
  call void @llvm.lifetime.start.p0(i64 8, ptr %5) #7
  store ptr null, ptr %5, align 8
  %7 = load ptr, ptr %2, align 8
  %8 = call i32 @list_count(ptr noundef %7)
  %9 = icmp slt i32 %8, 2
  br i1 %9, label %10, label %11

10:                                               ; preds = %1
  store i32 1, ptr %6, align 4
  br label %87

11:                                               ; preds = %1
  %12 = load ptr, ptr %2, align 8
  %13 = call ptr @list_iterator_create(ptr noundef %12)
  store ptr %13, ptr %5, align 8
  br label %14

14:                                               ; preds = %82, %35, %11
  %15 = load ptr, ptr %5, align 8
  %16 = call ptr @list_next(ptr noundef %15)
  store ptr %16, ptr %3, align 8
  %17 = icmp ne ptr %16, null
  br i1 %17, label %18, label %85

18:                                               ; preds = %14
  %19 = load ptr, ptr %4, align 8
  %20 = icmp ne ptr %19, null
  br i1 %20, label %36, label %21

21:                                               ; preds = %18
  %22 = load ptr, ptr %3, align 8
  store ptr %22, ptr %4, align 8
  %23 = load ptr, ptr %3, align 8
  %24 = getelementptr inbounds nuw %struct.slurmdb_report_cluster_rec_t, ptr %23, i32 0, i32 2
  call void @slurm_xfree(ptr noundef %24)
  %25 = load ptr, ptr @fed_name, align 8
  %26 = icmp ne ptr %25, null
  br i1 %26, label %27, label %31

27:                                               ; preds = %21
  %28 = load ptr, ptr %3, align 8
  %29 = getelementptr inbounds nuw %struct.slurmdb_report_cluster_rec_t, ptr %28, i32 0, i32 2
  %30 = load ptr, ptr @fed_name, align 8
  call void (ptr, ptr, ...) @_xstrfmtcat(ptr noundef %29, ptr noundef @.str.72, ptr noundef %30)
  br label %35

31:                                               ; preds = %21
  %32 = call ptr @xstrdup(ptr noundef @.str.73)
  %33 = load ptr, ptr %3, align 8
  %34 = getelementptr inbounds nuw %struct.slurmdb_report_cluster_rec_t, ptr %33, i32 0, i32 2
  store ptr %32, ptr %34, align 8
  br label %35

35:                                               ; preds = %31, %27
  br label %14, !llvm.loop !17

36:                                               ; preds = %18
  %37 = load ptr, ptr %4, align 8
  %38 = getelementptr inbounds nuw %struct.slurmdb_report_cluster_rec_t, ptr %37, i32 0, i32 3
  %39 = load ptr, ptr %38, align 8
  %40 = load ptr, ptr %3, align 8
  %41 = getelementptr inbounds nuw %struct.slurmdb_report_cluster_rec_t, ptr %40, i32 0, i32 3
  %42 = load ptr, ptr %41, align 8
  call void @combine_tres_list(ptr noundef %39, ptr noundef %42)
  %43 = load ptr, ptr %4, align 8
  %44 = getelementptr inbounds nuw %struct.slurmdb_report_cluster_rec_t, ptr %43, i32 0, i32 1
  %45 = load ptr, ptr %44, align 8
  %46 = icmp ne ptr %45, null
  br i1 %46, label %55, label %47

47:                                               ; preds = %36
  %48 = load ptr, ptr %3, align 8
  %49 = getelementptr inbounds nuw %struct.slurmdb_report_cluster_rec_t, ptr %48, i32 0, i32 1
  %50 = load ptr, ptr %49, align 8
  %51 = load ptr, ptr %4, align 8
  %52 = getelementptr inbounds nuw %struct.slurmdb_report_cluster_rec_t, ptr %51, i32 0, i32 1
  store ptr %50, ptr %52, align 8
  %53 = load ptr, ptr %3, align 8
  %54 = getelementptr inbounds nuw %struct.slurmdb_report_cluster_rec_t, ptr %53, i32 0, i32 1
  store ptr null, ptr %54, align 8
  br label %62

55:                                               ; preds = %36
  %56 = load ptr, ptr %4, align 8
  %57 = getelementptr inbounds nuw %struct.slurmdb_report_cluster_rec_t, ptr %56, i32 0, i32 1
  %58 = load ptr, ptr %57, align 8
  %59 = load ptr, ptr %3, align 8
  %60 = getelementptr inbounds nuw %struct.slurmdb_report_cluster_rec_t, ptr %59, i32 0, i32 1
  %61 = load ptr, ptr %60, align 8
  call void @combine_assoc_tres(ptr noundef %58, ptr noundef %61)
  br label %62

62:                                               ; preds = %55, %47
  %63 = load ptr, ptr %4, align 8
  %64 = getelementptr inbounds nuw %struct.slurmdb_report_cluster_rec_t, ptr %63, i32 0, i32 4
  %65 = load ptr, ptr %64, align 8
  %66 = icmp ne ptr %65, null
  br i1 %66, label %75, label %67

67:                                               ; preds = %62
  %68 = load ptr, ptr %3, align 8
  %69 = getelementptr inbounds nuw %struct.slurmdb_report_cluster_rec_t, ptr %68, i32 0, i32 4
  %70 = load ptr, ptr %69, align 8
  %71 = load ptr, ptr %4, align 8
  %72 = getelementptr inbounds nuw %struct.slurmdb_report_cluster_rec_t, ptr %71, i32 0, i32 4
  store ptr %70, ptr %72, align 8
  %73 = load ptr, ptr %3, align 8
  %74 = getelementptr inbounds nuw %struct.slurmdb_report_cluster_rec_t, ptr %73, i32 0, i32 4
  store ptr null, ptr %74, align 8
  br label %82

75:                                               ; preds = %62
  %76 = load ptr, ptr %4, align 8
  %77 = getelementptr inbounds nuw %struct.slurmdb_report_cluster_rec_t, ptr %76, i32 0, i32 4
  %78 = load ptr, ptr %77, align 8
  %79 = load ptr, ptr %3, align 8
  %80 = getelementptr inbounds nuw %struct.slurmdb_report_cluster_rec_t, ptr %79, i32 0, i32 4
  %81 = load ptr, ptr %80, align 8
  call void @combine_user_tres(ptr noundef %78, ptr noundef %81)
  br label %82

82:                                               ; preds = %75, %67
  %83 = load ptr, ptr %5, align 8
  %84 = call i32 @list_delete_item(ptr noundef %83)
  br label %14, !llvm.loop !17

85:                                               ; preds = %14
  %86 = load ptr, ptr %5, align 8
  call void @list_iterator_destroy(ptr noundef %86)
  store i32 0, ptr %6, align 4
  br label %87

87:                                               ; preds = %85, %10
  call void @llvm.lifetime.end.p0(i64 8, ptr %5) #7
  call void @llvm.lifetime.end.p0(i64 8, ptr %4) #7
  call void @llvm.lifetime.end.p0(i64 8, ptr %3) #7
  %88 = load i32, ptr %6, align 4
  switch i32 %88, label %90 [
    i32 0, label %89
    i32 1, label %89
  ]

89:                                               ; preds = %87, %87
  ret void

90:                                               ; preds = %87
  unreachable
}