; Function Attrs: nounwind uwtable
define internal fastcc void @_merge_cluster_reps(ptr noundef nonnull %0) unnamed_addr #0 {
  %2 = tail call i32 @list_count(ptr noundef nonnull %0) #9
  %3 = icmp slt i32 %2, 2
  br i1 %3, label %36, label %4

4:                                                ; preds = %1
  %5 = tail call ptr @list_iterator_create(ptr noundef nonnull %0) #9
  %6 = tail call ptr @list_next(ptr noundef %5) #9
  %.not3340 = icmp eq ptr %6, null
  br i1 %.not3340, label %.outer._crit_edge, label %.lr.ph

.lr.ph:                                           ; preds = %4, %.outer
  %7 = phi ptr [ %24, %.outer ], [ %6, %4 ]
  %.0.ph41 = phi ptr [ %7, %.outer ], [ null, %4 ]
  %.not28 = icmp eq ptr %.0.ph41, null
  br i1 %.not28, label %.lr.ph.split.us, label %.lr.ph.split

.lr.ph.split.us:                                  ; preds = %.lr.ph
  %8 = getelementptr inbounds nuw i8, ptr %7, i64 16
  tail call void @slurm_xfree(ptr noundef nonnull %8) #9
  %9 = load ptr, ptr @fed_name, align 8
  %.not29 = icmp eq ptr %9, null
  br i1 %.not29, label %22, label %21

.lr.ph.split:                                     ; preds = %.lr.ph
  %10 = getelementptr inbounds nuw i8, ptr %.0.ph41, i64 24
  %11 = getelementptr inbounds nuw i8, ptr %.0.ph41, i64 8
  %12 = getelementptr inbounds nuw i8, ptr %.0.ph41, i64 32
  br label %13

13:                                               ; preds = %.lr.ph.split, %33
  %14 = phi ptr [ %7, %.lr.ph.split ], [ %35, %33 ]
  %15 = load ptr, ptr %10, align 8
  %16 = getelementptr inbounds nuw i8, ptr %14, i64 24
  %17 = load ptr, ptr %16, align 8
  tail call void @combine_tres_list(ptr noundef %15, ptr noundef %17) #9
  %18 = load ptr, ptr %11, align 8
  %.not30 = icmp eq ptr %18, null
  %19 = getelementptr inbounds nuw i8, ptr %14, i64 8
  %20 = load ptr, ptr %19, align 8
  br i1 %.not30, label %25, label %26

21:                                               ; preds = %.lr.ph.split.us
  tail call void (ptr, ptr, ...) @_xstrfmtcat(ptr noundef nonnull %8, ptr noundef nonnull @.str.72, ptr noundef nonnull %9) #9
  br label %.outer

22:                                               ; preds = %.lr.ph.split.us
  %23 = tail call ptr @xstrdup(ptr noundef nonnull @.str.73) #9
  store ptr %23, ptr %8, align 8
  br label %.outer

.outer:                                           ; preds = %22, %21
  %24 = tail call ptr @list_next(ptr noundef %5) #9
  %.not33 = icmp eq ptr %24, null
  br i1 %.not33, label %.outer._crit_edge, label %.lr.ph, !llvm.loop !18

25:                                               ; preds = %13
  store ptr %20, ptr %11, align 8
  store ptr null, ptr %19, align 8
  br label %27

26:                                               ; preds = %13
  tail call void @combine_assoc_tres(ptr noundef nonnull %18, ptr noundef %20) #9
  br label %27

27:                                               ; preds = %26, %25
  %28 = load ptr, ptr %12, align 8
  %.not31 = icmp eq ptr %28, null
  %29 = getelementptr inbounds nuw i8, ptr %14, i64 32
  %30 = load ptr, ptr %29, align 8
  br i1 %.not31, label %31, label %32

31:                                               ; preds = %27
  store ptr %30, ptr %12, align 8
  store ptr null, ptr %29, align 8
  br label %33

32:                                               ; preds = %27
  tail call void @combine_user_tres(ptr noundef nonnull %28, ptr noundef %30) #9
  br label %33

33:                                               ; preds = %32, %31
  %34 = tail call i32 @list_delete_item(ptr noundef %5) #9
  %35 = tail call ptr @list_next(ptr noundef %5) #9
  %.not = icmp eq ptr %35, null
  br i1 %.not, label %.outer._crit_edge, label %13, !llvm.loop !18

.outer._crit_edge:                                ; preds = %.outer, %33, %4
  tail call void @list_iterator_destroy(ptr noundef %5) #9
  br label %36

36:                                               ; preds = %1, %.outer._crit_edge
  ret void
}